target datalayout = "e-m:e-p270:32:32-p271:32:32-p272:64:64-i64:64-i128:128-f80:128-n8:16:32:64-S128"
target triple = "x86_64-pc-linux-gnu"

%struct.z_stream_s = type { ptr, i32, i64, ptr, i32, i64, ptr, ptr, ptr, ptr, ptr, i32, i64, i64 }
%struct.gz_header_s = type { i32, i64, i32, i32, ptr, i32, i32, ptr, i32, ptr, i32, i32, i32 }

@.str.11 = private unnamed_addr constant [7 x i8] c"1.2.11\00", align 1
@.str.20 = private unnamed_addr constant [17 x i8] c"Buffer too small\00", align 1
@.str.21 = private unnamed_addr constant [21 x i8] c"Intern deflate error\00", align 1
@.str.30 = private unnamed_addr constant [30 x i8] c"Out of memory in deflateInit2\00", align 1
@.str.31 = private unnamed_addr constant [31 x i8] c"Internal error in deflateInit2\00", align 1

; Function Attrs: nounwind uwtable
define internal ptr @deflateInit2Wrapper(ptr noundef %0, i32 noundef %1) #0 {
  %3 = alloca ptr, align 8
  %4 = alloca ptr, align 8
  %5 = alloca i32, align 4
  %6 = alloca i32, align 4
  store ptr %0, ptr %4, align 8
  store i32 %1, ptr %5, align 4
  %7 = load ptr, ptr %4, align 8
  %8 = load i32, ptr %5, align 4
  %9 = icmp sge i32 %8, 0
  br i1 %9, label %10, label %15

10:                                               ; preds = %2
  %11 = load i32, ptr %5, align 4
  %12 = icmp sle i32 %11, 9
  br i1 %12, label %13, label %15

13:                                               ; preds = %10
  %14 = load i32, ptr %5, align 4
  br label %16

15:                                               ; preds = %10, %2
  br label %16

16:                                               ; preds = %15, %13
  %17 = phi i32 [ %14, %13 ], [ -1, %15 ]
  %18 = call i32 @deflateInit2_(ptr noundef %7, i32 noundef %17, i32 noundef 8, i32 noundef 31, i32 noundef 8, i32 noundef 0, ptr noundef @.str.11, i32 noundef 112)
  store i32 %18, ptr %6, align 4
  %19 = load i32, ptr %6, align 4
  %20 = icmp eq i32 %19, -4
  br i1 %20, label %21, label %22

21:                                               ; preds = %16
  store ptr @.str.30, ptr %3, align 8
  br label %27

22:                                               ; preds = %16
  %23 = load i32, ptr %6, align 4
  %24 = icmp ne i32 %23, 0
  br i1 %24, label %25, label %26

25:                                               ; preds = %22
  store ptr @.str.31, ptr %3, align 8
  br label %27

26:                                               ; preds = %22
  store ptr null, ptr %3, align 8
  br label %27

27:                                               ; preds = %26, %25, %21
  %28 = load ptr, ptr %3, align 8
  ret ptr %28
}

; Function Attrs: nounwind uwtable
define i64 @ZIP_GZip_Fully(ptr noundef %0, i64 noundef %1, ptr noundef %2, i64 noundef %3, ptr noundef %4, i64 noundef %5, i32 noundef %6, ptr noundef %7, ptr noundef %8) #0 {
  %10 = alloca ptr, align 8
  %11 = alloca i64, align 8
  %12 = alloca ptr, align 8
  %13 = alloca i64, align 8
  %14 = alloca ptr, align 8
  %15 = alloca i64, align 8
  %16 = alloca i32, align 4
  %17 = alloca ptr, align 8
  %18 = alloca ptr, align 8
  %19 = alloca %struct.z_stream_s, align 8
  %20 = alloca %struct.gz_header_s, align 8
  %21 = alloca i32, align 4
  %22 = alloca [2 x ptr], align 16
  %23 = alloca i64, align 8
  store ptr %0, ptr %10, align 8
  store i64 %1, ptr %11, align 8
  store ptr %2, ptr %12, align 8
  store i64 %3, ptr %13, align 8
  store ptr %4, ptr %14, align 8
  store i64 %5, ptr %15, align 8
  store i32 %6, ptr %16, align 4
  store ptr %7, ptr %17, align 8
  store ptr %8, ptr %18, align 8
  %24 = load ptr, ptr %14, align 8
  store ptr %24, ptr %22, align 8
  %25 = getelementptr inbounds ptr, ptr %22, i64 1
  %26 = load i64, ptr %15, align 8
  %27 = load ptr, ptr %14, align 8
  %28 = getelementptr inbounds i8, ptr %27, i64 %26
  store ptr %28, ptr %25, align 8
  store i64 0, ptr %23, align 8
  call void @llvm.memset.p0.i64(ptr align 8 %19, i8 0, i64 112, i1 false)
  %29 = getelementptr inbounds %struct.z_stream_s, ptr %19, i32 0, i32 8
  store ptr @zlib_block_alloc, ptr %29, align 8
  %30 = getelementptr inbounds %struct.z_stream_s, ptr %19, i32 0, i32 9
  store ptr @zlib_block_free, ptr %30, align 8
  %31 = getelementptr inbounds [2 x ptr], ptr %22, i64 0, i64 0
  %32 = getelementptr inbounds %struct.z_stream_s, ptr %19, i32 0, i32 10
  store ptr %31, ptr %32, align 8
  %33 = load i32, ptr %16, align 4
  %34 = call ptr @deflateInit2Wrapper(ptr noundef %19, i32 noundef %33)
  %35 = load ptr, ptr %18, align 8
  store ptr %34, ptr %35, align 8
  %36 = load ptr, ptr %18, align 8
  %37 = load ptr, ptr %36, align 8
  %38 = icmp eq ptr %37, null
  br i1 %38, label %39, label %76

39:                                               ; preds = %9
  %40 = load ptr, ptr %12, align 8
  %41 = getelementptr inbounds %struct.z_stream_s, ptr %19, i32 0, i32 3
  store ptr %40, ptr %41, align 8
  %42 = load i64, ptr %13, align 8
  %43 = trunc i64 %42 to i32
  %44 = getelementptr inbounds %struct.z_stream_s, ptr %19, i32 0, i32 4
  store i32 %43, ptr %44, align 8
  %45 = load ptr, ptr %10, align 8
  %46 = getelementptr inbounds %struct.z_stream_s, ptr %19, i32 0, i32 0
  store ptr %45, ptr %46, align 8
  %47 = load i64, ptr %11, align 8
  %48 = trunc i64 %47 to i32
  %49 = getelementptr inbounds %struct.z_stream_s, ptr %19, i32 0, i32 1
  store i32 %48, ptr %49, align 8
  %50 = load ptr, ptr %17, align 8
  %51 = icmp ne ptr %50, null
  br i1 %51, label %52, label %56

52:                                               ; preds = %39
  call void @llvm.memset.p0.i64(ptr align 8 %20, i8 0, i64 80, i1 false)
  %53 = load ptr, ptr %17, align 8
  %54 = getelementptr inbounds %struct.gz_header_s, ptr %20, i32 0, i32 9
  store ptr %53, ptr %54, align 8
  %55 = call i32 @deflateSetHeader(ptr noundef %19, ptr noundef %20)
  br label %56

56:                                               ; preds = %52, %39
  %57 = call i32 @deflate(ptr noundef %19, i32 noundef 4)
  store i32 %57, ptr %21, align 4
  %58 = load i32, ptr %21, align 4
  %59 = icmp eq i32 %58, 0
  br i1 %59, label %63, label %60

60:                                               ; preds = %56
  %61 = load i32, ptr %21, align 4
  %62 = icmp eq i32 %61, -5
  br i1 %62, label %63, label %65

63:                                               ; preds = %60, %56
  %64 = load ptr, ptr %18, align 8
  store ptr @.str.20, ptr %64, align 8
  br label %74

65:                                               ; preds = %60
  %66 = load i32, ptr %21, align 4
  %67 = icmp ne i32 %66, 1
  br i1 %67, label %68, label %70

68:                                               ; preds = %65
  %69 = load ptr, ptr %18, align 8
  store ptr @.str.21, ptr %69, align 8
  br label %73

70:                                               ; preds = %65
  %71 = getelementptr inbounds %struct.z_stream_s, ptr %19, i32 0, i32 5
  %72 = load i64, ptr %71, align 8
  store i64 %72, ptr %23, align 8
  br label %73

73:                                               ; preds = %70, %68
  br label %74

74:                                               ; preds = %73, %63
  %75 = call i32 @deflateEnd(ptr noundef %19)
  br label %76

76:                                               ; preds = %74, %9
  %77 = load i64, ptr %23, align 8
  ret i64 %77
}