; Function Attrs: nounwind uwtable
define i64 @ZIP_GZip_Fully(ptr noundef %0, i64 noundef %1, ptr noundef %2, i64 noundef %3, ptr noundef %4, i64 noundef %5, i32 noundef %6, ptr noundef %7, ptr nocapture noundef writeonly %8) local_unnamed_addr #0 {
  %10 = alloca %struct.z_stream_s, align 8
  %11 = alloca %struct.gz_header_s, align 8
  %12 = alloca [2 x ptr], align 16
  store ptr %4, ptr %12, align 16
  %13 = getelementptr inbounds i8, ptr %12, i64 8
  %14 = getelementptr inbounds i8, ptr %4, i64 %5
  store ptr %14, ptr %13, align 8
  call void @llvm.memset.p0.i64(ptr noundef nonnull align 8 dereferenceable(112) %10, i8 0, i64 112, i1 false)
  %15 = getelementptr inbounds i8, ptr %10, i64 64
  store ptr @zlib_block_alloc, ptr %15, align 8
  %16 = getelementptr inbounds i8, ptr %10, i64 72
  store ptr @zlib_block_free, ptr %16, align 8
  %17 = getelementptr inbounds i8, ptr %10, i64 80
  store ptr %12, ptr %17, align 8
  %or.cond.i = icmp ult i32 %6, 10
  %18 = select i1 %or.cond.i, i32 %6, i32 -1
  %19 = call i32 @deflateInit2_(ptr noundef nonnull %10, i32 noundef %18, i32 noundef 8, i32 noundef 31, i32 noundef 8, i32 noundef 0, ptr noundef nonnull @.str.11, i32 noundef 112) #21
  %switch.selectcmp.i = icmp eq i32 %19, 0
  %switch.select.i = select i1 %switch.selectcmp.i, ptr null, ptr @.str.31
  %switch.selectcmp8.i = icmp eq i32 %19, -4
  %switch.select9.i = select i1 %switch.selectcmp8.i, ptr @.str.30, ptr %switch.select.i
  store ptr %switch.select9.i, ptr %8, align 8
  br i1 %switch.selectcmp.i, label %20, label %38

20:                                               ; preds = %9
  %21 = getelementptr inbounds i8, ptr %10, i64 24
  store ptr %2, ptr %21, align 8
  %22 = trunc i64 %3 to i32
  %23 = getelementptr inbounds i8, ptr %10, i64 32
  store i32 %22, ptr %23, align 8
  store ptr %0, ptr %10, align 8
  %24 = trunc i64 %1 to i32
  %25 = getelementptr inbounds i8, ptr %10, i64 8
  store i32 %24, ptr %25, align 8
  %.not = icmp eq ptr %7, null
  br i1 %.not, label %29, label %26

26:                                               ; preds = %20
  call void @llvm.memset.p0.i64(ptr noundef nonnull align 8 dereferenceable(80) %11, i8 0, i64 80, i1 false)
  %27 = getelementptr inbounds i8, ptr %11, i64 56
  store ptr %7, ptr %27, align 8
  %28 = call i32 @deflateSetHeader(ptr noundef nonnull %10, ptr noundef nonnull %11) #21
  br label %29

29:                                               ; preds = %26, %20
  %30 = call i32 @deflate(ptr noundef nonnull %10, i32 noundef 4) #21
  switch i32 %30, label %32 [
    i32 -5, label %31
    i32 0, label %31
    i32 1, label %33
  ]

31:                                               ; preds = %29, %29
  store ptr @.str.20, ptr %8, align 8
  br label %36

32:                                               ; preds = %29
  store ptr @.str.21, ptr %8, align 8
  br label %36

33:                                               ; preds = %29
  %34 = getelementptr inbounds i8, ptr %10, i64 40
  %35 = load i64, ptr %34, align 8
  br label %36

36:                                               ; preds = %32, %33, %31
  %.0 = phi i64 [ 0, %31 ], [ 0, %32 ], [ %35, %33 ]
  %37 = call i32 @deflateEnd(ptr noundef nonnull %10) #21
  br label %38

38:                                               ; preds = %36, %9
  %.1 = phi i64 [ %.0, %36 ], [ 0, %9 ]
  ret i64 %.1
}